; Function Attrs: mustprogress nofree norecurse nosync nounwind willreturn memory(readwrite, inaccessiblemem: none) uwtable
define noundef zeroext i1 @_ZN3net14QuicDataWriter18WriteStringPiece16EN4base16BasicStringPieceINSt7__cxx1112basic_stringIcSt11char_traitsIcESaIcEEEEE(ptr noundef nonnull align 8 captures(none) dereferenceable(24) %0, ptr readonly captures(none) %1, i64 %2) local_unnamed_addr #4 align 2 personality ptr @__gxx_personality_v0 {
  %4 = icmp ugt i64 %2, 65535
  br i1 %4, label %_ZN3net14QuicDataWriter11WriteUInt16Et.exit, label %5

5:                                                ; preds = %3
  %6 = getelementptr inbounds nuw i8, ptr %0, i64 16
  %7 = load i64, ptr %6, align 8, !tbaa !11
  %8 = getelementptr inbounds nuw i8, ptr %0, i64 8
  %9 = load i64, ptr %8, align 8, !tbaa !10
  %10 = icmp ugt i64 %7, %9
  %11 = sub nuw i64 %9, %7
  %12 = icmp ult i64 %11, 2
  %or.cond.i.i.i = select i1 %10, i1 true, i1 %12
  %13 = load ptr, ptr %0, align 8
  %.not.i.i.not4 = icmp eq ptr %13, null
  %.not.i.i.not = select i1 %or.cond.i.i.i, i1 true, i1 %.not.i.i.not4
  br i1 %.not.i.i.not, label %_ZN3net14QuicDataWriter11WriteUInt16Et.exit, label %14

14:                                               ; preds = %5
  %15 = getelementptr inbounds nuw i8, ptr %13, i64 %7
  %16 = trunc nuw i64 %2 to i16
  store i16 %16, ptr %15, align 1
  %17 = load i64, ptr %6, align 8, !tbaa !11
  %18 = add i64 %17, 2
  store i64 %18, ptr %6, align 8, !tbaa !11
  %19 = load i64, ptr %8, align 8, !tbaa !10
  %20 = icmp ugt i64 %18, %19
  %21 = sub nuw i64 %19, %18
  %22 = icmp ult i64 %21, %2
  %or.cond.i.i = select i1 %20, i1 true, i1 %22
  %23 = load ptr, ptr %0, align 8
  %.not.i.not5 = icmp eq ptr %23, null
  %.not.i.not = select i1 %or.cond.i.i, i1 true, i1 %.not.i.not5
  br i1 %.not.i.not, label %_ZN3net14QuicDataWriter11WriteUInt16Et.exit, label %24

24:                                               ; preds = %14
  %25 = getelementptr inbounds nuw i8, ptr %23, i64 %18
  tail call void @llvm.memcpy.p0.p0.i64(ptr nonnull align 1 %25, ptr readonly align 1 %1, i64 %2, i1 false)
  %26 = load i64, ptr %6, align 8, !tbaa !11
  %27 = add i64 %26, %2
  store i64 %27, ptr %6, align 8, !tbaa !11
  br label %_ZN3net14QuicDataWriter11WriteUInt16Et.exit

_ZN3net14QuicDataWriter11WriteUInt16Et.exit:      ; preds = %24, %14, %5, %3
  %.0 = phi i1 [ false, %3 ], [ false, %5 ], [ false, %14 ], [ true, %24 ]
  ret i1 %.0
}